target datalayout = "e-m:e-p270:32:32-p271:32:32-p272:64:64-i64:64-i128:128-f80:128-n8:16:32:64-S128"
target triple = "x86_64-unknown-linux-gnu"

%"class.folly::Range" = type { ptr, ptr }
%"class.facebook::velox::functions::JsonPathTokenizer" = type { i64, %"class.folly::Range" }

; Function Attrs: mustprogress nounwind uwtable
define linkonce_odr noundef i64 @_ZNK5folly5RangeIPKcE4sizeEv(ptr noundef nonnull align 8 dereferenceable(16) %this) #1 comdat align 2 {
entry:
  %this.addr = alloca ptr, align 8
  store ptr %this, ptr %this.addr, align 8
  %this1 = load ptr, ptr %this.addr, align 8
  %e_ = getelementptr inbounds %"class.folly::Range", ptr %this1, i32 0, i32 1
  %0 = load ptr, ptr %e_, align 8
  %b_ = getelementptr inbounds %"class.folly::Range", ptr %this1, i32 0, i32 0
  %1 = load ptr, ptr %b_, align 8
  %sub.ptr.lhs.cast = ptrtoint ptr %0 to i64
  %sub.ptr.rhs.cast = ptrtoint ptr %1 to i64
  %sub.ptr.sub = sub i64 %sub.ptr.lhs.cast, %sub.ptr.rhs.cast
  ret i64 %sub.ptr.sub
}

; Function Attrs: mustprogress uwtable
define noundef zeroext i1 @_ZNK8facebook5velox9functions17JsonPathTokenizer7hasNextEv(ptr noundef nonnull align 8 dereferenceable(24) %this) #0 align 2 {
entry:
  %this.addr = alloca ptr, align 8
  store ptr %this, ptr %this.addr, align 8
  %this1 = load ptr, ptr %this.addr, align 8
  %index_ = getelementptr inbounds %"class.facebook::velox::functions::JsonPathTokenizer", ptr %this1, i32 0, i32 0
  %0 = load i64, ptr %index_, align 8
  %path_ = getelementptr inbounds %"class.facebook::velox::functions::JsonPathTokenizer", ptr %this1, i32 0, i32 1
  %call = call noundef i64 @_ZNK5folly5RangeIPKcE4sizeEv(ptr noundef nonnull align 8 dereferenceable(16) %path_)
  %cmp = icmp ult i64 %0, %call
  ret i1 %cmp
}