; Function Attrs: mustprogress nofree norecurse nosync nounwind willreturn memory(argmem: read) uwtable
define noundef zeroext i1 @_ZNK8facebook5velox9functions17JsonPathTokenizer7hasNextEv(ptr nocapture noundef nonnull readonly align 8 dereferenceable(24) %this) local_unnamed_addr #1 align 2 {
entry:
  %0 = load i64, ptr %this, align 8
  %path_ = getelementptr inbounds i8, ptr %this, i64 8
  %e_.i = getelementptr inbounds i8, ptr %this, i64 16
  %1 = load ptr, ptr %e_.i, align 8
  %2 = load ptr, ptr %path_, align 8
  %sub.ptr.lhs.cast.i = ptrtoint ptr %1 to i64
  %sub.ptr.rhs.cast.i = ptrtoint ptr %2 to i64
  %sub.ptr.sub.i = sub i64 %sub.ptr.lhs.cast.i, %sub.ptr.rhs.cast.i
  %cmp = icmp ult i64 %0, %sub.ptr.sub.i
  ret i1 %cmp
}